; Function Attrs: null_pointer_is_valid sspstrong uwtable
define internal i32 @dissect_nbap_ProcedureID(ptr noundef %0, i32 noundef %1, ptr noundef %2, ptr noundef %3, i32 noundef %4) #0 {
  store ptr null, ptr @ProcedureID, align 8
  %6 = getelementptr inbounds nuw i8, ptr %2, i64 16
  %7 = load ptr, ptr %6, align 8
  %8 = getelementptr inbounds nuw i8, ptr %7, i64 408
  %9 = load ptr, ptr %8, align 8
  %10 = load i32, ptr @proto_nbap, align 4
  %11 = tail call ptr @p_get_proto_data(ptr noundef %9, ptr noundef %7, i32 noundef %10, i32 noundef 0)
  %12 = icmp eq ptr %11, null
  br i1 %12, label %13, label %nbap_get_private_data.exit

13:                                               ; preds = %5
  %14 = load ptr, ptr %8, align 8
  %15 = tail call noalias dereferenceable_or_null(268056) ptr @wmem_alloc0(ptr noundef %14, i64 noundef 268056) #10
  %16 = load ptr, ptr %8, align 8
  %17 = load i32, ptr @proto_nbap, align 4
  tail call void @p_add_proto_data(ptr noundef %16, ptr noundef %7, i32 noundef %17, i32 noundef 0, ptr noundef %15)
  %18 = getelementptr inbounds nuw i8, ptr %15, i64 68
  store i32 3, ptr %18, align 4
  %19 = getelementptr inbounds nuw i8, ptr %15, i64 108
  store i8 0, ptr %19, align 4
  %20 = getelementptr inbounds nuw i8, ptr %15, i64 12
  store i32 65535, ptr %20, align 4
  %21 = getelementptr inbounds nuw i8, ptr %15, i64 40
  store i32 65535, ptr %21, align 8
  %22 = getelementptr inbounds nuw i8, ptr %15, i64 109
  store i8 2, ptr %22, align 1
  %23 = getelementptr i8, ptr %15, i64 267508
  br label %24

24:                                               ; preds = %24, %13
  %indvars.iv.i = phi i64 [ 0, %13 ], [ %indvars.iv.next.i, %24 ]
  %.idx.i = mul nuw nsw i64 %indvars.iv.i, 40
  %25 = getelementptr i8, ptr %23, i64 %.idx.i
  store i8 1, ptr %25, align 4
  %indvars.iv.next.i = add nuw nsw i64 %indvars.iv.i, 1
  %exitcond.not.i = icmp eq i64 %indvars.iv.next.i, 8
  br i1 %exitcond.not.i, label %nbap_get_private_data.exit, label %24, !llvm.loop !9

nbap_get_private_data.exit:                       ; preds = %24, %5
  %.0.i = phi ptr [ %11, %5 ], [ %15, %24 ]
  %26 = load i32, ptr @ett_nbap_ProcedureID, align 4
  %27 = tail call i32 @dissect_per_sequence(ptr noundef %0, i32 noundef %1, ptr noundef %2, ptr noundef %3, i32 noundef %4, i32 noundef %26, ptr noundef nonnull @ProcedureID_sequence)
  %28 = load ptr, ptr %6, align 8
  %29 = getelementptr inbounds nuw i8, ptr %28, i64 408
  %30 = load ptr, ptr %29, align 8
  %31 = getelementptr inbounds nuw i8, ptr %.0.i, i64 12
  %32 = load i32, ptr %31, align 4
  %33 = tail call ptr @val_to_str(i32 noundef %32, ptr noundef nonnull @nbap_ProcedureCode_vals, ptr noundef nonnull @.str.9204)
  %34 = getelementptr inbounds nuw i8, ptr %.0.i, i64 40
  %35 = load i32, ptr %34, align 8
  %36 = tail call ptr @val_to_str(i32 noundef %35, ptr noundef nonnull @nbap_DdMode_vals, ptr noundef nonnull @.str.9204)
  %37 = tail call noalias ptr (ptr, ptr, ...) @wmem_strdup_printf(ptr noundef %30, ptr noundef nonnull @.str.9203, ptr noundef %33, ptr noundef %36)
  store ptr %37, ptr @ProcedureID, align 8
  %38 = getelementptr inbounds nuw i8, ptr %.0.i, i64 108
  store i8 0, ptr %38, align 4
  ret i32 %27
}